target datalayout = "e-m:e-p270:32:32-p271:32:32-p272:64:64-i64:64-i128:128-f80:128-n8:16:32:64-S128"
target triple = "x86_64-pc-linux-gnu"

%struct.pmi2_tree_info = type { ptr, ptr, i32, i32, i32, i32, i16, ptr, ptr }
%struct.spawn_req = type { i32, ptr, i32, i32, ptr, ptr, ptr }

@.str = private unnamed_addr constant [8 x i8] c"spawn.c\00", align 1
@__func__.spawn_req_new = private unnamed_addr constant [14 x i8] c"spawn_req_new\00", align 1
@tree_info = external global %struct.pmi2_tree_info, align 8

; Function Attrs: nounwind uwtable
define dso_local ptr @spawn_req_new() #0 {
  %1 = alloca ptr, align 8
  call void @llvm.lifetime.start.p0(i64 8, ptr %1) #7
  %2 = call ptr @slurm_xcalloc(i64 noundef 1, i64 noundef 48, i1 noundef zeroext true, i1 noundef zeroext false, ptr noundef @.str, i32 noundef 112, ptr noundef @__func__.spawn_req_new)
  store ptr %2, ptr %1, align 8
  %3 = load ptr, ptr %1, align 8
  %4 = getelementptr inbounds nuw %struct.spawn_req, ptr %3, i32 0, i32 0
  store i32 0, ptr %4, align 8
  %5 = load ptr, ptr @tree_info, align 8
  %6 = call ptr @slurm_xstrdup(ptr noundef %5)
  %7 = load ptr, ptr %1, align 8
  %8 = getelementptr inbounds nuw %struct.spawn_req, ptr %7, i32 0, i32 1
  store ptr %6, ptr %8, align 8
  %9 = load ptr, ptr %1, align 8
  call void @llvm.lifetime.end.p0(i64 8, ptr %1) #7
  ret ptr %9
}