; Function Attrs: nounwind uwtable
define dso_local noundef ptr @spawn_req_new() local_unnamed_addr #0 {
  %1 = tail call ptr @slurm_xcalloc(i64 noundef 1, i64 noundef 48, i1 noundef zeroext true, i1 noundef zeroext false, ptr noundef nonnull @.str, i32 noundef 112, ptr noundef nonnull @__func__.spawn_req_new) #10
  store i32 0, ptr %1, align 8
  %2 = load ptr, ptr @tree_info, align 8
  %3 = tail call ptr @slurm_xstrdup(ptr noundef %2) #10
  %4 = getelementptr inbounds nuw i8, ptr %1, i64 8
  store ptr %3, ptr %4, align 8
  ret ptr %1
}